target datalayout = "e-m:e-p270:32:32-p271:32:32-p272:64:64-i64:64-i128:128-f80:128-n8:16:32:64-S128"
target triple = "x86_64-pc-linux-gnu"

%struct._object = type { %union.anon, ptr }
%union.anon = type { i64 }
%struct._typeobject = type opaque
%struct.anon = type { i32, i32 }
%struct.PyType_Slot = type { i32, ptr }

@Xxo_Type = internal global ptr null, align 8
@PyBaseObject_Type = external global %struct._typeobject, align 1
@PyUnicode_Type = external global %struct._typeobject, align 1
@ErrorObject = internal global ptr null, align 8
@.str.11 = private unnamed_addr constant [19 x i8] c"xxlimited_35.error\00", align 1
@.str.12 = private unnamed_addr constant [6 x i8] c"error\00", align 1
@.str.13 = private unnamed_addr constant [4 x i8] c"Xxo\00", align 1
@.str.14 = private unnamed_addr constant [4 x i8] c"Str\00", align 1
@.str.15 = private unnamed_addr constant [5 x i8] c"Null\00", align 1
@Str_Type_slots = internal global [2 x { i32, [4 x i8], ptr }] [{ i32, [4 x i8], ptr } { i32 48, [4 x i8] zeroinitializer, ptr null }, { i32, [4 x i8], ptr } zeroinitializer], align 16
@Xxo_Type_spec = internal global { ptr, i32, i32, i32, [4 x i8], ptr } { ptr @.str.18, i32 24, i32 0, i32 16384, [4 x i8] zeroinitializer, ptr @Xxo_Type_slots }, align 8
@Str_Type_spec = internal global { ptr, i32, i32, i32, [4 x i8], ptr } { ptr @.str.27, i32 0, i32 0, i32 1024, [4 x i8] zeroinitializer, ptr @Str_Type_slots }, align 8
@Null_Type_spec = internal global { ptr, i32, i32, i32, [4 x i8], ptr } { ptr @.str.29, i32 0, i32 0, i32 1024, [4 x i8] zeroinitializer, ptr @Null_Type_slots }, align 8

; Function Attrs: alwaysinline nounwind uwtable
define internal i32 @_Py_IsImmortal(ptr noundef %0) #4 {
  %2 = alloca ptr, align 8
  store ptr %0, ptr %2, align 8, !tbaa !3
  %3 = load ptr, ptr %2, align 8, !tbaa !3
  %4 = getelementptr inbounds nuw %struct._object, ptr %3, i32 0, i32 0
  %5 = getelementptr inbounds nuw %struct.anon, ptr %4, i32 0, i32 0
  %6 = load i32, ptr %5, align 8, !tbaa !11
  %7 = icmp slt i32 %6, 0
  %8 = zext i1 %7 to i32
  ret i32 %8
}

; Function Attrs: alwaysinline nounwind uwtable
define internal void @Py_DECREF(ptr noundef %0) #4 {
  %2 = alloca ptr, align 8
  store ptr %0, ptr %2, align 8, !tbaa !3
  %3 = load ptr, ptr %2, align 8, !tbaa !3
  %4 = call i32 @_Py_IsImmortal(ptr noundef %3)
  %5 = icmp ne i32 %4, 0
  br i1 %5, label %6, label %7

6:                                                ; preds = %1
  br label %16

7:                                                ; preds = %1
  %8 = load ptr, ptr %2, align 8, !tbaa !3
  %9 = getelementptr inbounds nuw %struct._object, ptr %8, i32 0, i32 0
  %10 = getelementptr inbounds nuw %struct.anon, ptr %9, i32 0, i32 0
  %11 = load i32, ptr %10, align 8, !tbaa !11
  %12 = add i32 %11, -1
  store i32 %12, ptr %10, align 8, !tbaa !11
  %13 = icmp eq i32 %12, 0
  br i1 %13, label %14, label %16

14:                                               ; preds = %7
  %15 = load ptr, ptr %2, align 8, !tbaa !3
  call void @_Py_Dealloc(ptr noundef %15)
  br label %16

16:                                               ; preds = %6, %14, %7
  ret void
}

; Function Attrs: alwaysinline nounwind uwtable
define internal void @Py_INCREF(ptr noundef %0) #4 {
  %2 = alloca ptr, align 8
  %3 = alloca i32, align 4
  %4 = alloca i32, align 4
  store ptr %0, ptr %2, align 8, !tbaa !3
  call void @llvm.lifetime.start.p0(i64 4, ptr %3) #5
  %5 = load ptr, ptr %2, align 8, !tbaa !3
  %6 = getelementptr inbounds nuw %struct._object, ptr %5, i32 0, i32 0
  %7 = getelementptr inbounds nuw %struct.anon, ptr %6, i32 0, i32 0
  %8 = load i32, ptr %7, align 8, !tbaa !11
  store i32 %8, ptr %3, align 4, !tbaa !12
  %9 = load i32, ptr %3, align 4, !tbaa !12
  %10 = icmp slt i32 %9, 0
  br i1 %10, label %11, label %12

11:                                               ; preds = %1
  store i32 1, ptr %4, align 4
  br label %18

12:                                               ; preds = %1
  %13 = load i32, ptr %3, align 4, !tbaa !12
  %14 = add i32 %13, 1
  %15 = load ptr, ptr %2, align 8, !tbaa !3
  %16 = getelementptr inbounds nuw %struct._object, ptr %15, i32 0, i32 0
  %17 = getelementptr inbounds nuw %struct.anon, ptr %16, i32 0, i32 0
  store i32 %14, ptr %17, align 8, !tbaa !11
  store i32 0, ptr %4, align 4
  br label %18

18:                                               ; preds = %12, %11
  call void @llvm.lifetime.end.p0(i64 4, ptr %3) #5
  %19 = load i32, ptr %4, align 4
  switch i32 %19, label %21 [
    i32 0, label %20
    i32 1, label %20
  ]

20:                                               ; preds = %18, %18
  ret void

21:                                               ; preds = %18
  unreachable
}

; Function Attrs: nounwind uwtable
define internal i32 @xx_modexec(ptr noundef %0) #0 {
  %2 = alloca i32, align 4
  %3 = alloca ptr, align 8
  %4 = alloca ptr, align 8
  %5 = alloca i32, align 4
  store ptr %0, ptr %3, align 8, !tbaa !3
  call void @llvm.lifetime.start.p0(i64 8, ptr %4) #5
  store ptr @PyBaseObject_Type, ptr getelementptr inbounds nuw (%struct.PyType_Slot, ptr @Null_Type_slots, i32 0, i32 1), align 8, !tbaa !18
  store ptr @PyType_GenericNew, ptr getelementptr inbounds nuw (%struct.PyType_Slot, ptr getelementptr ([4 x %struct.PyType_Slot], ptr @Null_Type_slots, i64 0, i64 1), i32 0, i32 1), align 8, !tbaa !18
  store ptr @PyUnicode_Type, ptr getelementptr inbounds nuw (%struct.PyType_Slot, ptr @Str_Type_slots, i32 0, i32 1), align 8, !tbaa !18
  %6 = load ptr, ptr @ErrorObject, align 8, !tbaa !3
  %7 = icmp eq ptr %6, null
  br i1 %7, label %8, label %14

8:                                                ; preds = %1
  %9 = call ptr @PyErr_NewException(ptr noundef @.str.11, ptr noundef null, ptr noundef null)
  store ptr %9, ptr @ErrorObject, align 8, !tbaa !3
  %10 = load ptr, ptr @ErrorObject, align 8, !tbaa !3
  %11 = icmp eq ptr %10, null
  br i1 %11, label %12, label %13

12:                                               ; preds = %8
  store i32 -1, ptr %2, align 4
  store i32 1, ptr %5, align 4
  br label %59

13:                                               ; preds = %8
  br label %14

14:                                               ; preds = %13, %1
  %15 = load ptr, ptr @ErrorObject, align 8, !tbaa !3
  call void @Py_INCREF(ptr noundef %15)
  %16 = load ptr, ptr %3, align 8, !tbaa !3
  %17 = load ptr, ptr @ErrorObject, align 8, !tbaa !3
  %18 = call i32 @PyModule_AddObject(ptr noundef %16, ptr noundef @.str.12, ptr noundef %17)
  %19 = icmp slt i32 %18, 0
  br i1 %19, label %20, label %22

20:                                               ; preds = %14
  %21 = load ptr, ptr @ErrorObject, align 8, !tbaa !3
  call void @Py_DECREF(ptr noundef %21)
  store i32 -1, ptr %2, align 4
  store i32 1, ptr %5, align 4
  br label %59

22:                                               ; preds = %14
  %23 = call ptr @PyType_FromSpec(ptr noundef @Xxo_Type_spec)
  store ptr %23, ptr @Xxo_Type, align 8, !tbaa !3
  %24 = load ptr, ptr @Xxo_Type, align 8, !tbaa !3
  %25 = icmp eq ptr %24, null
  br i1 %25, label %26, label %27

26:                                               ; preds = %22
  store i32 -1, ptr %2, align 4
  store i32 1, ptr %5, align 4
  br label %59

27:                                               ; preds = %22
  %28 = load ptr, ptr %3, align 8, !tbaa !3
  %29 = load ptr, ptr @Xxo_Type, align 8, !tbaa !3
  %30 = call i32 @PyModule_AddObject(ptr noundef %28, ptr noundef @.str.13, ptr noundef %29)
  %31 = icmp slt i32 %30, 0
  br i1 %31, label %32, label %34

32:                                               ; preds = %27
  %33 = load ptr, ptr @Xxo_Type, align 8, !tbaa !3
  call void @Py_DECREF(ptr noundef %33)
  store i32 -1, ptr %2, align 4
  store i32 1, ptr %5, align 4
  br label %59

34:                                               ; preds = %27
  %35 = call ptr @PyType_FromSpec(ptr noundef @Str_Type_spec)
  store ptr %35, ptr %4, align 8, !tbaa !3
  %36 = load ptr, ptr %4, align 8, !tbaa !3
  %37 = icmp eq ptr %36, null
  br i1 %37, label %38, label %39

38:                                               ; preds = %34
  store i32 -1, ptr %2, align 4
  store i32 1, ptr %5, align 4
  br label %59

39:                                               ; preds = %34
  %40 = load ptr, ptr %3, align 8, !tbaa !3
  %41 = load ptr, ptr %4, align 8, !tbaa !3
  %42 = call i32 @PyModule_AddObject(ptr noundef %40, ptr noundef @.str.14, ptr noundef %41)
  %43 = icmp slt i32 %42, 0
  br i1 %43, label %44, label %46

44:                                               ; preds = %39
  %45 = load ptr, ptr %4, align 8, !tbaa !3
  call void @Py_DECREF(ptr noundef %45)
  store i32 -1, ptr %2, align 4
  store i32 1, ptr %5, align 4
  br label %59

46:                                               ; preds = %39
  %47 = call ptr @PyType_FromSpec(ptr noundef @Null_Type_spec)
  store ptr %47, ptr %4, align 8, !tbaa !3
  %48 = load ptr, ptr %4, align 8, !tbaa !3
  %49 = icmp eq ptr %48, null
  br i1 %49, label %50, label %51

50:                                               ; preds = %46
  store i32 -1, ptr %2, align 4
  store i32 1, ptr %5, align 4
  br label %59

51:                                               ; preds = %46
  %52 = load ptr, ptr %3, align 8, !tbaa !3
  %53 = load ptr, ptr %4, align 8, !tbaa !3
  %54 = call i32 @PyModule_AddObject(ptr noundef %52, ptr noundef @.str.15, ptr noundef %53)
  %55 = icmp slt i32 %54, 0
  br i1 %55, label %56, label %58

56:                                               ; preds = %51
  %57 = load ptr, ptr %4, align 8, !tbaa !3
  call void @Py_DECREF(ptr noundef %57)
  store i32 -1, ptr %2, align 4
  store i32 1, ptr %5, align 4
  br label %59

58:                                               ; preds = %51
  store i32 0, ptr %2, align 4
  store i32 1, ptr %5, align 4
  br label %59

59:                                               ; preds = %58, %56, %50, %44, %38, %32, %26, %20, %12
  call void @llvm.lifetime.end.p0(i64 8, ptr %4) #5
  %60 = load i32, ptr %2, align 4
  ret i32 %60
}