; Function Attrs: nounwind uwtable
define internal range(i32 -1, 1) i32 @xx_modexec(ptr noundef %0) #0 {
  store ptr @PyBaseObject_Type, ptr getelementptr inbounds nuw (i8, ptr @Null_Type_slots, i64 8), align 8, !tbaa !15
  store ptr @PyType_GenericNew, ptr getelementptr inbounds nuw (i8, ptr @Null_Type_slots, i64 24), align 8, !tbaa !15
  store ptr @PyUnicode_Type, ptr getelementptr inbounds nuw (i8, ptr @Str_Type_slots, i64 8), align 8, !tbaa !15
  %2 = load ptr, ptr @ErrorObject, align 8, !tbaa !8
  %3 = icmp eq ptr %2, null
  br i1 %3, label %4, label %7

4:                                                ; preds = %1
  %5 = tail call ptr @PyErr_NewException(ptr noundef nonnull @.str.11, ptr noundef null, ptr noundef null) #4
  store ptr %5, ptr @ErrorObject, align 8, !tbaa !8
  %6 = icmp eq ptr %5, null
  br i1 %6, label %Py_DECREF.exit, label %7

7:                                                ; preds = %4, %1
  %8 = phi ptr [ %5, %4 ], [ %2, %1 ]
  %9 = load i32, ptr %8, align 8, !tbaa !3
  %10 = icmp slt i32 %9, 0
  br i1 %10, label %Py_INCREF.exit, label %11

11:                                               ; preds = %7
  %12 = add nuw i32 %9, 1
  store i32 %12, ptr %8, align 8, !tbaa !3
  br label %Py_INCREF.exit

Py_INCREF.exit:                                   ; preds = %7, %11
  %13 = tail call i32 @PyModule_AddObject(ptr noundef %0, ptr noundef nonnull @.str.12, ptr noundef nonnull %8) #4
  %14 = icmp slt i32 %13, 0
  br i1 %14, label %15, label %21

15:                                               ; preds = %Py_INCREF.exit
  %16 = load ptr, ptr @ErrorObject, align 8, !tbaa !8
  %17 = load i32, ptr %16, align 8, !tbaa !3
  %.not.i = icmp sgt i32 %17, -1
  br i1 %.not.i, label %18, label %Py_DECREF.exit

18:                                               ; preds = %15
  %19 = add nsw i32 %17, -1
  store i32 %19, ptr %16, align 8, !tbaa !3
  %20 = icmp eq i32 %19, 0
  br i1 %20, label %Py_DECREF.exit.sink.split, label %Py_DECREF.exit

21:                                               ; preds = %Py_INCREF.exit
  %22 = tail call ptr @PyType_FromSpec(ptr noundef nonnull @Xxo_Type_spec) #4
  store ptr %22, ptr @Xxo_Type, align 8, !tbaa !8
  %23 = icmp eq ptr %22, null
  br i1 %23, label %Py_DECREF.exit, label %24

24:                                               ; preds = %21
  %25 = tail call i32 @PyModule_AddObject(ptr noundef %0, ptr noundef nonnull @.str.13, ptr noundef nonnull %22) #4
  %26 = icmp slt i32 %25, 0
  br i1 %26, label %27, label %33

27:                                               ; preds = %24
  %28 = load ptr, ptr @Xxo_Type, align 8, !tbaa !8
  %29 = load i32, ptr %28, align 8, !tbaa !3
  %.not.i13 = icmp sgt i32 %29, -1
  br i1 %.not.i13, label %30, label %Py_DECREF.exit

30:                                               ; preds = %27
  %31 = add nsw i32 %29, -1
  store i32 %31, ptr %28, align 8, !tbaa !3
  %32 = icmp eq i32 %31, 0
  br i1 %32, label %Py_DECREF.exit.sink.split, label %Py_DECREF.exit

33:                                               ; preds = %24
  %34 = tail call ptr @PyType_FromSpec(ptr noundef nonnull @Str_Type_spec) #4
  %35 = icmp eq ptr %34, null
  br i1 %35, label %Py_DECREF.exit, label %36

36:                                               ; preds = %33
  %37 = tail call i32 @PyModule_AddObject(ptr noundef %0, ptr noundef nonnull @.str.14, ptr noundef nonnull %34) #4
  %38 = icmp slt i32 %37, 0
  br i1 %38, label %39, label %44

39:                                               ; preds = %36
  %40 = load i32, ptr %34, align 8, !tbaa !3
  %.not.i15 = icmp sgt i32 %40, -1
  br i1 %.not.i15, label %41, label %Py_DECREF.exit

41:                                               ; preds = %39
  %42 = add nsw i32 %40, -1
  store i32 %42, ptr %34, align 8, !tbaa !3
  %43 = icmp eq i32 %42, 0
  br i1 %43, label %Py_DECREF.exit.sink.split, label %Py_DECREF.exit

44:                                               ; preds = %36
  %45 = tail call ptr @PyType_FromSpec(ptr noundef nonnull @Null_Type_spec) #4
  %46 = icmp eq ptr %45, null
  br i1 %46, label %Py_DECREF.exit, label %47

47:                                               ; preds = %44
  %48 = tail call i32 @PyModule_AddObject(ptr noundef %0, ptr noundef nonnull @.str.15, ptr noundef nonnull %45) #4
  %49 = icmp slt i32 %48, 0
  br i1 %49, label %50, label %Py_DECREF.exit

50:                                               ; preds = %47
  %51 = load i32, ptr %45, align 8, !tbaa !3
  %.not.i17 = icmp sgt i32 %51, -1
  br i1 %.not.i17, label %52, label %Py_DECREF.exit

52:                                               ; preds = %50
  %53 = add nsw i32 %51, -1
  store i32 %53, ptr %45, align 8, !tbaa !3
  %54 = icmp eq i32 %53, 0
  br i1 %54, label %Py_DECREF.exit.sink.split, label %Py_DECREF.exit

Py_DECREF.exit.sink.split:                        ; preds = %52, %41, %30, %18
  %.sink = phi ptr [ %16, %18 ], [ %28, %30 ], [ %34, %41 ], [ %45, %52 ]
  tail call void @_Py_Dealloc(ptr noundef nonnull %.sink) #4
  br label %Py_DECREF.exit

Py_DECREF.exit:                                   ; preds = %Py_DECREF.exit.sink.split, %52, %50, %41, %39, %30, %27, %18, %15, %47, %44, %33, %21, %4
  %.0 = phi i32 [ -1, %4 ], [ -1, %21 ], [ -1, %33 ], [ -1, %44 ], [ 0, %47 ], [ -1, %15 ], [ -1, %18 ], [ -1, %27 ], [ -1, %30 ], [ -1, %39 ], [ -1, %41 ], [ -1, %50 ], [ -1, %52 ], [ -1, %Py_DECREF.exit.sink.split ]
  ret i32 %.0
}